target datalayout = "e-m:e-p270:32:32-p271:32:32-p272:64:64-i64:64-i128:128-f80:128-n8:16:32:64-S128"
target triple = "x86_64-pc-linux-gnu"

%struct.anon.12 = type { [65 x i32], i32 }

@signal_buff = internal global %struct.anon.12 zeroinitializer, align 4

; Function Attrs: inlinehint nounwind sspstrong memory(argmem: readwrite, inaccessiblemem: readwrite) uwtable
define internal void @rbimpl_atomic_sub(ptr noundef nonnull %0, i32 noundef %1) #10 {
  %3 = alloca ptr, align 8
  %4 = alloca i32, align 4
  %5 = alloca i32, align 4
  %6 = alloca i32, align 4
  store ptr %0, ptr %3, align 8, !tbaa !49
  store i32 %1, ptr %4, align 4, !tbaa !7
  %7 = load ptr, ptr %3, align 8, !tbaa !49
  %8 = load i32, ptr %4, align 4, !tbaa !7
  store i32 %8, ptr %5, align 4, !tbaa !7
  %9 = load i32, ptr %5, align 4
  %10 = atomicrmw volatile sub ptr %7, i32 %9 seq_cst, align 4
  %11 = sub i32 %10, %9
  store i32 %11, ptr %6, align 4
  ret void
}

; Function Attrs: inlinehint nounwind sspstrong memory(argmem: readwrite, inaccessiblemem: readwrite) uwtable
define internal void @rbimpl_atomic_dec(ptr noundef nonnull %0) #10 {
  %2 = alloca ptr, align 8
  store ptr %0, ptr %2, align 8, !tbaa !49
  %3 = load ptr, ptr %2, align 8, !tbaa !49
  call void @rbimpl_atomic_sub(ptr noundef %3, i32 noundef 1) #31
  ret void
}

; Function Attrs: nounwind sspstrong uwtable
define hidden i32 @rb_get_next_signal() #1 {
  %1 = alloca i32, align 4
  %2 = alloca i32, align 4
  call void @llvm.lifetime.start.p0(i64 4, ptr %1) #22
  call void @llvm.lifetime.start.p0(i64 4, ptr %2) #22
  store i32 0, ptr %2, align 4, !tbaa !7
  %3 = load i32, ptr getelementptr inbounds nuw (%struct.anon.12, ptr @signal_buff, i32 0, i32 1), align 4, !tbaa !69
  %4 = icmp ne i32 %3, 0
  br i1 %4, label %5, label %25

5:                                                ; preds = %0
  store i32 1, ptr %1, align 4, !tbaa !7
  br label %6

6:                                                ; preds = %21, %5
  %7 = load i32, ptr %1, align 4, !tbaa !7
  %8 = icmp slt i32 %7, 65
  br i1 %8, label %9, label %24

9:                                                ; preds = %6
  %10 = load i32, ptr %1, align 4, !tbaa !7
  %11 = sext i32 %10 to i64
  %12 = getelementptr [65 x i32], ptr @signal_buff, i64 0, i64 %11
  %13 = load i32, ptr %12, align 4, !tbaa !7
  %14 = icmp ugt i32 %13, 0
  br i1 %14, label %15, label %20

15:                                               ; preds = %9
  %16 = load i32, ptr %1, align 4, !tbaa !7
  %17 = sext i32 %16 to i64
  %18 = getelementptr [65 x i32], ptr @signal_buff, i64 0, i64 %17
  call void @rbimpl_atomic_dec(ptr noundef %18) #31
  call void @rbimpl_atomic_dec(ptr noundef getelementptr inbounds nuw (%struct.anon.12, ptr @signal_buff, i32 0, i32 1)) #31
  %19 = load i32, ptr %1, align 4, !tbaa !7
  store i32 %19, ptr %2, align 4, !tbaa !7
  br label %24

20:                                               ; preds = %9
  br label %21

21:                                               ; preds = %20
  %22 = load i32, ptr %1, align 4, !tbaa !7
  %23 = add i32 %22, 1
  store i32 %23, ptr %1, align 4, !tbaa !7
  br label %6, !llvm.loop !71

24:                                               ; preds = %15, %6
  br label %25

25:                                               ; preds = %24, %0
  %26 = load i32, ptr %2, align 4, !tbaa !7
  call void @llvm.lifetime.end.p0(i64 4, ptr %2) #22
  call void @llvm.lifetime.end.p0(i64 4, ptr %1) #22
  ret i32 %26
}