; Function Attrs: nofree norecurse nounwind sspstrong memory(readwrite, argmem: none) uwtable
define hidden range(i32 0, 65) i32 @rb_get_next_signal() local_unnamed_addr #9 {
  %1 = load i32, ptr getelementptr inbounds nuw (i8, ptr @signal_buff, i64 260), align 4, !tbaa !72
  %.not = icmp eq i32 %1, 0
  br i1 %.not, label %.loopexit, label %.preheader

.preheader:                                       ; preds = %0, %9
  %indvars.iv = phi i64 [ %indvars.iv.next, %9 ], [ 1, %0 ]
  %2 = getelementptr [65 x i32], ptr @signal_buff, i64 0, i64 %indvars.iv
  %3 = load i32, ptr %2, align 4, !tbaa !19
  %.not7 = icmp eq i32 %3, 0
  br i1 %.not7, label %9, label %4

4:                                                ; preds = %.preheader
  %5 = getelementptr [65 x i32], ptr @signal_buff, i64 0, i64 %indvars.iv
  %6 = trunc nuw nsw i64 %indvars.iv to i32
  %7 = atomicrmw volatile sub ptr %5, i32 1 seq_cst, align 4
  %8 = atomicrmw volatile sub ptr getelementptr inbounds nuw (i8, ptr @signal_buff, i64 260), i32 1 seq_cst, align 4
  br label %.loopexit

9:                                                ; preds = %.preheader
  %indvars.iv.next = add nuw nsw i64 %indvars.iv, 1
  %exitcond.not = icmp eq i64 %indvars.iv.next, 65
  br i1 %exitcond.not, label %.loopexit, label %.preheader, !llvm.loop !74

.loopexit:                                        ; preds = %9, %4, %0
  %.0 = phi i32 [ %6, %4 ], [ 0, %0 ], [ 0, %9 ]
  ret i32 %.0
}